target datalayout = "e-m:e-p270:32:32-p271:32:32-p272:64:64-i64:64-i128:128-f80:128-n8:16:32:64-S128"
target triple = "x86_64-pc-linux-gnu"

%struct.VVCTask = type { %union.anon.2, i32, i32, i32, i32, ptr, %struct.ProgressListener, [2 x [29 x %struct.ProgressListener]], ptr, ptr, i32, [10 x i8], i8 }
%union.anon.2 = type { %struct.FFTask }
%struct.FFTask = type { ptr, i32 }
%struct.ProgressListener = type { %struct.VVCProgressListener, ptr, ptr }
%struct.VVCProgressListener = type { i32, i32, ptr, ptr }
%struct.VVCFrameContext = type { ptr, [17 x %struct.VVCFrame], ptr, ptr, %struct.VVCFrameParamSets, ptr, i32, i32, ptr, %struct.VVCDSPContext, %struct.VideoDSPContext, ptr, i64, ptr, ptr, ptr, ptr, %struct.anon }
%struct.VVCFrame = type { ptr, ptr, ptr, ptr, ptr, ptr, i32, i32, i32, %struct.VVCWindow, i32, i32, ptr, ptr, i16, i8, ptr }
%struct.VVCWindow = type { i16, i16, i16, i16 }
%struct.VVCFrameParamSets = type { ptr, ptr, %struct.VVCPH, [8 x ptr], %struct.VVCLMCS, ptr }
%struct.VVCPH = type { ptr, ptr, i32, i32, i8, [3 x i16], i8, [3 x i16], %struct.PredWeightTable }
%struct.PredWeightTable = type { [2 x i8], [2 x i8], [2 x [2 x [15 x i8]]], [2 x [3 x [15 x i16]]], [2 x [3 x [15 x i16]]] }
%struct.VVCLMCS = type { i8, i8, %union.anon, %union.anon, [17 x i16], [16 x i16] }
%union.anon = type { [4096 x i16] }
%struct.VVCDSPContext = type { %struct.VVCInterDSPContext, %struct.VVCIntraDSPContext, %struct.VVCItxDSPContext, %struct.VVCLMCSDSPContext, %struct.VVCLFDSPContext, %struct.VVCSAODSPContext, %struct.VVCALFDSPContext }
%struct.VVCInterDSPContext = type { [2 x [7 x [2 x [2 x ptr]]]], [2 x [7 x [2 x [2 x ptr]]]], [2 x [7 x [2 x [2 x ptr]]]], [2 x [7 x ptr]], [2 x [7 x ptr]], [2 x [7 x ptr]], ptr, ptr, ptr, ptr, ptr, ptr, ptr, ptr, ptr, ptr, ptr, [2 x [2 x ptr]] }
%struct.VVCIntraDSPContext = type { ptr, ptr, ptr, ptr, ptr, ptr, ptr, ptr, ptr, ptr }
%struct.VVCItxDSPContext = type { ptr, ptr, [3 x [6 x ptr]], ptr, ptr }
%struct.VVCLMCSDSPContext = type { ptr }
%struct.VVCLFDSPContext = type { [2 x ptr], [2 x ptr], [2 x ptr] }
%struct.VVCSAODSPContext = type { [9 x ptr], [9 x ptr], [2 x ptr] }
%struct.VVCALFDSPContext = type { [2 x ptr], ptr, ptr, ptr }
%struct.VideoDSPContext = type { ptr, ptr }
%struct.anon = type { ptr, ptr, ptr, ptr, [2 x ptr], [2 x ptr], [2 x ptr], [2 x ptr], [2 x ptr], [3 x ptr], ptr, ptr, [2 x ptr], ptr, ptr, [2 x ptr], ptr, ptr, ptr, [2 x ptr], ptr, [3 x ptr], ptr, [2 x ptr], [2 x ptr], [2 x ptr], [2 x [3 x ptr]], [2 x ptr], [2 x ptr], [3 x ptr], [3 x ptr], [3 x [2 x ptr]], [3 x [2 x ptr]], ptr, ptr, ptr, [3 x ptr], %struct.anon.0 }
%struct.anon.0 = type { i32, i32, i32, i32, i32, i32, i32, i32, i32, i32, i32, i32 }
%struct.VVCLocalContext = type { i8, i8, i8, i8, i32, i32, [4 x i8], [3276800 x i8], [16384 x i16], [16384 x i16], [16384 x i16], [32768 x i8], [332800 x i8], [368640 x i8], [368640 x i8], [17424 x i32], %struct.anon.3, %struct.anon.4, ptr, [2 x [1024 x %struct.ReconstructedArea]], [2 x i32], %struct.NeighbourAvailable, i32, ptr, ptr, ptr, ptr }
%struct.anon.3 = type { i32, i8, i32, i32, i32, [3 x i32], i32, i32, i32, i32, i32, i32 }
%struct.anon.4 = type { i32, i32, i32 }
%struct.ReconstructedArea = type { i32, i32, i32, i32 }
%struct.NeighbourAvailable = type { i32, i32, i32, i32, i32 }
%struct.CTU = type { [2 x [29 x i32]], [2 x i32], i32 }

; Function Attrs: nounwind uwtable
define internal i32 @run_parse(ptr noundef %0, ptr noundef %1, ptr noundef %2) #0 {
  %4 = alloca i32, align 4
  %5 = alloca ptr, align 8
  %6 = alloca ptr, align 8
  %7 = alloca ptr, align 8
  %8 = alloca i32, align 4
  %9 = alloca ptr, align 8
  %10 = alloca i32, align 4
  %11 = alloca ptr, align 8
  %12 = alloca i32, align 4
  store ptr %0, ptr %5, align 8, !tbaa !4
  store ptr %1, ptr %6, align 8, !tbaa !21
  store ptr %2, ptr %7, align 8, !tbaa !19
  call void @llvm.lifetime.start.p0(i64 4, ptr %8) #7
  call void @llvm.lifetime.start.p0(i64 8, ptr %9) #7
  %13 = load ptr, ptr %6, align 8, !tbaa !21
  %14 = getelementptr inbounds nuw %struct.VVCLocalContext, ptr %13, i32 0, i32 24
  %15 = load ptr, ptr %14, align 8, !tbaa !69
  store ptr %15, ptr %9, align 8, !tbaa !82
  call void @llvm.lifetime.start.p0(i64 4, ptr %10) #7
  %16 = load ptr, ptr %7, align 8, !tbaa !19
  %17 = getelementptr inbounds nuw %struct.VVCTask, ptr %16, i32 0, i32 4
  %18 = load i32, ptr %17, align 4, !tbaa !108
  store i32 %18, ptr %10, align 4, !tbaa !9
  call void @llvm.lifetime.start.p0(i64 8, ptr %11) #7
  %19 = load ptr, ptr %9, align 8, !tbaa !82
  %20 = getelementptr inbounds nuw %struct.VVCFrameContext, ptr %19, i32 0, i32 17
  %21 = getelementptr inbounds nuw %struct.anon, ptr %20, i32 0, i32 34
  %22 = load ptr, ptr %21, align 8, !tbaa !156
  %23 = load i32, ptr %10, align 4, !tbaa !9
  %24 = sext i32 %23 to i64
  %25 = getelementptr inbounds %struct.CTU, ptr %22, i64 %24
  store ptr %25, ptr %11, align 8, !tbaa !157
  %26 = load ptr, ptr %7, align 8, !tbaa !19
  %27 = getelementptr inbounds nuw %struct.VVCTask, ptr %26, i32 0, i32 9
  %28 = load ptr, ptr %27, align 8, !tbaa !145
  %29 = load ptr, ptr %6, align 8, !tbaa !21
  %30 = getelementptr inbounds nuw %struct.VVCLocalContext, ptr %29, i32 0, i32 25
  store ptr %28, ptr %30, align 16, !tbaa !158
  %31 = load ptr, ptr %6, align 8, !tbaa !21
  %32 = load ptr, ptr %7, align 8, !tbaa !19
  %33 = getelementptr inbounds nuw %struct.VVCTask, ptr %32, i32 0, i32 10
  %34 = load i32, ptr %33, align 8, !tbaa !146
  %35 = load i32, ptr %10, align 4, !tbaa !9
  %36 = load ptr, ptr %7, align 8, !tbaa !19
  %37 = getelementptr inbounds nuw %struct.VVCTask, ptr %36, i32 0, i32 2
  %38 = load i32, ptr %37, align 4, !tbaa !78
  %39 = load ptr, ptr %7, align 8, !tbaa !19
  %40 = getelementptr inbounds nuw %struct.VVCTask, ptr %39, i32 0, i32 3
  %41 = load i32, ptr %40, align 8, !tbaa !79
  %42 = call i32 @ff_vvc_coding_tree_unit(ptr noundef %31, i32 noundef %34, i32 noundef %35, i32 noundef %38, i32 noundef %41)
  store i32 %42, ptr %8, align 4, !tbaa !9
  %43 = load i32, ptr %8, align 4, !tbaa !9
  %44 = icmp slt i32 %43, 0
  br i1 %44, label %45, label %47

45:                                               ; preds = %3
  %46 = load i32, ptr %8, align 4, !tbaa !9
  store i32 %46, ptr %4, align 4
  store i32 1, ptr %12, align 4
  br label %60

47:                                               ; preds = %3
  %48 = load ptr, ptr %11, align 8, !tbaa !157
  %49 = getelementptr inbounds nuw %struct.CTU, ptr %48, i32 0, i32 2
  %50 = load i32, ptr %49, align 4, !tbaa !159
  %51 = icmp ne i32 %50, 0
  br i1 %51, label %59, label %52

52:                                               ; preds = %47
  %53 = load ptr, ptr %6, align 8, !tbaa !21
  %54 = getelementptr inbounds nuw %struct.VVCLocalContext, ptr %53, i32 0, i32 24
  %55 = load ptr, ptr %54, align 8, !tbaa !69
  %56 = load ptr, ptr %7, align 8, !tbaa !19
  %57 = getelementptr inbounds nuw %struct.VVCTask, ptr %56, i32 0, i32 3
  %58 = load i32, ptr %57, align 8, !tbaa !79
  call void @report_frame_progress(ptr noundef %55, i32 noundef %58, i32 noundef 0)
  br label %59

59:                                               ; preds = %52, %47
  store i32 0, ptr %4, align 4
  store i32 1, ptr %12, align 4
  br label %60

60:                                               ; preds = %59, %45
  call void @llvm.lifetime.end.p0(i64 8, ptr %11) #7
  call void @llvm.lifetime.end.p0(i64 4, ptr %10) #7
  call void @llvm.lifetime.end.p0(i64 8, ptr %9) #7
  call void @llvm.lifetime.end.p0(i64 4, ptr %8) #7
  %61 = load i32, ptr %4, align 4
  ret i32 %61
}