; Function Attrs: nounwind uwtable
define internal range(i32 -2147483648, 1) i32 @run_parse(ptr readnone captures(none) %0, ptr noundef initializes((4580560, 4580568)) %1, ptr noundef readonly captures(none) %2) #0 {
  %4 = getelementptr inbounds nuw i8, ptr %1, i64 4580552
  %5 = load ptr, ptr %4, align 8, !tbaa !60
  %6 = getelementptr inbounds nuw i8, ptr %2, i64 28
  %7 = load i32, ptr %6, align 4, !tbaa !111
  %8 = getelementptr inbounds nuw i8, ptr %5, i64 21896
  %9 = load ptr, ptr %8, align 8, !tbaa !178
  %10 = getelementptr inbounds nuw i8, ptr %2, i64 2408
  %11 = load ptr, ptr %10, align 8, !tbaa !129
  %12 = getelementptr inbounds nuw i8, ptr %1, i64 4580560
  store ptr %11, ptr %12, align 16, !tbaa !179
  %13 = getelementptr inbounds nuw i8, ptr %2, i64 2416
  %14 = load i32, ptr %13, align 8, !tbaa !130
  %15 = getelementptr inbounds nuw i8, ptr %2, i64 20
  %16 = load i32, ptr %15, align 4, !tbaa !82
  %17 = getelementptr inbounds nuw i8, ptr %2, i64 24
  %18 = load i32, ptr %17, align 8, !tbaa !83
  %19 = tail call i32 @ff_vvc_coding_tree_unit(ptr noundef %1, i32 noundef %14, i32 noundef %7, i32 noundef %16, i32 noundef %18) #7
  %20 = icmp slt i32 %19, 0
  br i1 %20, label %28, label %21

21:                                               ; preds = %3
  %22 = sext i32 %7 to i64
  %23 = getelementptr inbounds %struct.CTU, ptr %9, i64 %22, i32 2
  %24 = load i32, ptr %23, align 4, !tbaa !180
  %.not = icmp eq i32 %24, 0
  br i1 %.not, label %25, label %28

25:                                               ; preds = %21
  %26 = load ptr, ptr %4, align 8, !tbaa !60
  %27 = load i32, ptr %17, align 8, !tbaa !83
  tail call fastcc void @report_frame_progress(ptr noundef %26, i32 noundef %27, i32 noundef 0)
  br label %28

28:                                               ; preds = %21, %25, %3
  %.0 = phi i32 [ %19, %3 ], [ 0, %25 ], [ 0, %21 ]
  ret i32 %.0
}